target datalayout = "e-m:e-p270:32:32-p271:32:32-p272:64:64-i64:64-i128:128-f80:128-n8:16:32:64-S128"
target triple = "x86_64-pc-linux-gnu"

%"class.std::__shared_count" = type { ptr }
%"class.toku::lock_request" = type { i64, i64, i64, ptr, ptr, %struct.__toku_dbt, %struct.__toku_dbt, i32, ptr, i32, i32, %"class.std::shared_ptr.0", i8, ptr, ptr, ptr, ptr, ptr, %"class.std::function" }
%struct.__toku_dbt = type { ptr, i64, i64, i32 }
%"class.std::shared_ptr.0" = type { %"class.std::__shared_ptr.1" }
%"class.std::__shared_ptr.1" = type { ptr, %"class.std::__shared_count" }
%"class.std::function" = type { %"class.std::_Function_base", ptr }
%"class.std::_Function_base" = type { %"union.std::_Any_data", ptr }
%"union.std::_Any_data" = type { %"union.std::_Nocopy_types" }
%"union.std::_Nocopy_types" = type { { i64, i64 } }
%"class.toku::txnid_set" = type { %"class.toku::omt.8" }
%"class.toku::omt.8" = type { i8, i32, %union.anon.9 }
%union.anon.9 = type { %"struct.toku::omt<unsigned long>::omt_array" }
%"struct.toku::omt<unsigned long>::omt_array" = type { i32, i32, ptr }

; Function Attrs: mustprogress nounwind uwtable
define linkonce_odr noundef ptr @_ZNKSt12__shared_ptrIN7rocksdb20TransactionDBCondVarELN9__gnu_cxx12_Lock_policyE2EE3getEv(ptr noundef nonnull align 8 dereferenceable(16) %0) #3 comdat align 2 {
  %2 = alloca ptr, align 8
  store ptr %0, ptr %2, align 8, !tbaa !153
  %3 = load ptr, ptr %2, align 8
  %4 = getelementptr inbounds nuw %"class.std::__shared_ptr.1", ptr %3, i32 0, i32 0
  %5 = load ptr, ptr %4, align 8, !tbaa !158
  ret ptr %5
}

; Function Attrs: mustprogress nounwind uwtable
define linkonce_odr noundef ptr @_ZNKSt19__shared_ptr_accessIN7rocksdb20TransactionDBCondVarELN9__gnu_cxx12_Lock_policyE2ELb0ELb0EE6_M_getEv(ptr noundef nonnull align 1 dereferenceable(1) %0) #3 comdat align 2 {
  %2 = alloca ptr, align 8
  store ptr %0, ptr %2, align 8, !tbaa !207
  %3 = load ptr, ptr %2, align 8
  %4 = call noundef ptr @_ZNKSt12__shared_ptrIN7rocksdb20TransactionDBCondVarELN9__gnu_cxx12_Lock_policyE2EE3getEv(ptr noundef nonnull align 8 dereferenceable(16) %3) #17
  ret ptr %4
}

; Function Attrs: mustprogress nounwind uwtable
define linkonce_odr noundef ptr @_ZNKSt19__shared_ptr_accessIN7rocksdb20TransactionDBCondVarELN9__gnu_cxx12_Lock_policyE2ELb0ELb0EEptEv(ptr noundef nonnull align 1 dereferenceable(1) %0) #3 comdat align 2 {
  %2 = alloca ptr, align 8
  store ptr %0, ptr %2, align 8, !tbaa !207
  %3 = load ptr, ptr %2, align 8
  %4 = call noundef ptr @_ZNKSt19__shared_ptr_accessIN7rocksdb20TransactionDBCondVarELN9__gnu_cxx12_Lock_policyE2ELb0ELb0EE6_M_getEv(ptr noundef nonnull align 1 dereferenceable(1) %3) #17
  ret ptr %4
}

; Function Attrs: inlinehint mustprogress uwtable
define linkonce_odr void @_Z28toku_external_cond_broadcastPSt10shared_ptrIN7rocksdb20TransactionDBCondVarEE(ptr noundef %0) #2 comdat {
  %2 = alloca ptr, align 8
  store ptr %0, ptr %2, align 8, !tbaa !41
  %3 = load ptr, ptr %2, align 8, !tbaa !41
  %4 = call noundef ptr @_ZNKSt19__shared_ptr_accessIN7rocksdb20TransactionDBCondVarELN9__gnu_cxx12_Lock_policyE2ELb0ELb0EEptEv(ptr noundef nonnull align 1 dereferenceable(1) %3) #17
  %5 = load ptr, ptr %4, align 8, !tbaa !43
  %6 = getelementptr inbounds ptr, ptr %5, i64 5
  %7 = load ptr, ptr %6, align 8
  call void %7(ptr noundef nonnull align 8 dereferenceable(8) %4)
  ret void
}

; Function Attrs: mustprogress nounwind uwtable
define void @_ZN4toku12lock_request8completeEi(ptr noundef nonnull align 8 dereferenceable(224) %0, i32 noundef %1) #3 align 2 {
  %3 = alloca ptr, align 8
  %4 = alloca i32, align 4
  store ptr %0, ptr %3, align 8, !tbaa !4
  store i32 %1, ptr %4, align 4, !tbaa !61
  %5 = load ptr, ptr %3, align 8
  %6 = load i32, ptr %4, align 4, !tbaa !61
  %7 = getelementptr inbounds nuw %"class.toku::lock_request", ptr %5, i32 0, i32 9
  store i32 %6, ptr %7, align 8, !tbaa !35
  %8 = getelementptr inbounds nuw %"class.toku::lock_request", ptr %5, i32 0, i32 10
  store i32 3, ptr %8, align 4, !tbaa !36
  ret void
}

; Function Attrs: mustprogress uwtable
define noundef i32 @_ZN4toku12lock_request5retryEPSt6vectorINS_14lock_wait_infoESaIS2_EE(ptr noundef nonnull align 8 dereferenceable(224) %0, ptr noundef %1) #0 align 2 {
  %3 = alloca ptr, align 8
  %4 = alloca ptr, align 8
  %5 = alloca i32, align 4
  %6 = alloca %"class.toku::txnid_set", align 8
  store ptr %0, ptr %3, align 8, !tbaa !4
  store ptr %1, ptr %4, align 8, !tbaa !103
  %7 = load ptr, ptr %3, align 8
  call void @llvm.lifetime.start.p0(i64 4, ptr %5) #17
  call void @llvm.lifetime.start.p0(i64 24, ptr %6) #17
  call void @_ZN4toku9txnid_set6createEv(ptr noundef nonnull align 8 dereferenceable(24) %6)
  %8 = getelementptr inbounds nuw %"class.toku::lock_request", ptr %7, i32 0, i32 7
  %9 = load i32, ptr %8, align 8, !tbaa !33
  %10 = icmp eq i32 %9, 2
  br i1 %10, label %11, label %24

11:                                               ; preds = %2
  %12 = getelementptr inbounds nuw %"class.toku::lock_request", ptr %7, i32 0, i32 8
  %13 = load ptr, ptr %12, align 8, !tbaa !34
  %14 = getelementptr inbounds nuw %"class.toku::lock_request", ptr %7, i32 0, i32 0
  %15 = load i64, ptr %14, align 8, !tbaa !11
  %16 = getelementptr inbounds nuw %"class.toku::lock_request", ptr %7, i32 0, i32 3
  %17 = load ptr, ptr %16, align 8, !tbaa !31
  %18 = getelementptr inbounds nuw %"class.toku::lock_request", ptr %7, i32 0, i32 4
  %19 = load ptr, ptr %18, align 8, !tbaa !32
  %20 = getelementptr inbounds nuw %"class.toku::lock_request", ptr %7, i32 0, i32 12
  %21 = load i8, ptr %20, align 8, !tbaa !55, !range !53, !noundef !54
  %22 = trunc i8 %21 to i1
  %23 = call noundef i32 @_ZN4toku8locktree18acquire_write_lockEmPK10__toku_dbtS3_PNS_9txnid_setEb(ptr noundef nonnull align 8 dereferenceable(400) %13, i64 noundef %15, ptr noundef %17, ptr noundef %19, ptr noundef %6, i1 noundef zeroext %22)
  store i32 %23, ptr %5, align 4, !tbaa !61
  br label %37

24:                                               ; preds = %2
  %25 = getelementptr inbounds nuw %"class.toku::lock_request", ptr %7, i32 0, i32 8
  %26 = load ptr, ptr %25, align 8, !tbaa !34
  %27 = getelementptr inbounds nuw %"class.toku::lock_request", ptr %7, i32 0, i32 0
  %28 = load i64, ptr %27, align 8, !tbaa !11
  %29 = getelementptr inbounds nuw %"class.toku::lock_request", ptr %7, i32 0, i32 3
  %30 = load ptr, ptr %29, align 8, !tbaa !31
  %31 = getelementptr inbounds nuw %"class.toku::lock_request", ptr %7, i32 0, i32 4
  %32 = load ptr, ptr %31, align 8, !tbaa !32
  %33 = getelementptr inbounds nuw %"class.toku::lock_request", ptr %7, i32 0, i32 12
  %34 = load i8, ptr %33, align 8, !tbaa !55, !range !53, !noundef !54
  %35 = trunc i8 %34 to i1
  %36 = call noundef i32 @_ZN4toku8locktree17acquire_read_lockEmPK10__toku_dbtS3_PNS_9txnid_setEb(ptr noundef nonnull align 8 dereferenceable(400) %26, i64 noundef %28, ptr noundef %30, ptr noundef %32, ptr noundef %6, i1 noundef zeroext %35)
  store i32 %36, ptr %5, align 4, !tbaa !61
  br label %37

37:                                               ; preds = %24, %11
  %38 = load i32, ptr %5, align 4, !tbaa !61
  %39 = icmp eq i32 %38, 0
  br i1 %39, label %40, label %50

40:                                               ; preds = %37
  call void @_ZN4toku12lock_request25remove_from_lock_requestsEv(ptr noundef nonnull align 8 dereferenceable(224) %7)
  %41 = load i32, ptr %5, align 4, !tbaa !61
  call void @_ZN4toku12lock_request8completeEi(ptr noundef nonnull align 8 dereferenceable(224) %7, i32 noundef %41)
  %42 = getelementptr inbounds nuw %"class.toku::lock_request", ptr %7, i32 0, i32 17
  %43 = load ptr, ptr %42, align 8, !tbaa !40
  %44 = icmp ne ptr %43, null
  br i1 %44, label %45, label %48

45:                                               ; preds = %40
  %46 = getelementptr inbounds nuw %"class.toku::lock_request", ptr %7, i32 0, i32 17
  %47 = load ptr, ptr %46, align 8, !tbaa !40
  call void %47()
  br label %48

48:                                               ; preds = %45, %40
  %49 = getelementptr inbounds nuw %"class.toku::lock_request", ptr %7, i32 0, i32 11
  call void @_Z28toku_external_cond_broadcastPSt10shared_ptrIN7rocksdb20TransactionDBCondVarEE(ptr noundef %49)
  br label %54

50:                                               ; preds = %37
  %51 = call noundef i64 @_ZNK4toku9txnid_set3getEj(ptr noundef nonnull align 8 dereferenceable(24) %6, i32 noundef 0)
  %52 = getelementptr inbounds nuw %"class.toku::lock_request", ptr %7, i32 0, i32 1
  store i64 %51, ptr %52, align 8, !tbaa !29
  %53 = load ptr, ptr %4, align 8, !tbaa !103
  call void @_ZN4toku12lock_request22add_conflicts_to_waitsEPNS_9txnid_setEPSt6vectorINS_14lock_wait_infoESaIS4_EE(ptr noundef nonnull align 8 dereferenceable(224) %7, ptr noundef %6, ptr noundef %53)
  br label %54

54:                                               ; preds = %50, %48
  call void @_ZN4toku9txnid_set7destroyEv(ptr noundef nonnull align 8 dereferenceable(24) %6)
  %55 = load i32, ptr %5, align 4, !tbaa !61
  call void @llvm.lifetime.end.p0(i64 24, ptr %6) #17
  call void @llvm.lifetime.end.p0(i64 4, ptr %5) #17
  ret i32 %55
}