; Function Attrs: mustprogress uwtable
define noundef i32 @_ZN4toku12lock_request5retryEPSt6vectorINS_14lock_wait_infoESaIS2_EE(ptr noundef nonnull align 8 dereferenceable(224) %0, ptr noundef %1) local_unnamed_addr #0 align 2 {
  %3 = alloca %"class.toku::txnid_set", align 8
  call void @llvm.lifetime.start.p0(i64 24, ptr nonnull %3) #22
  call void @_ZN4toku9txnid_set6createEv(ptr noundef nonnull align 8 dereferenceable(24) %3)
  %4 = getelementptr inbounds nuw i8, ptr %0, i64 104
  %5 = load i32, ptr %4, align 8, !tbaa !4
  %6 = icmp eq i32 %5, 2
  %7 = getelementptr inbounds nuw i8, ptr %0, i64 112
  %8 = load ptr, ptr %7, align 8, !tbaa !41
  %9 = load i64, ptr %0, align 8, !tbaa !42
  %10 = getelementptr inbounds nuw i8, ptr %0, i64 24
  %11 = load ptr, ptr %10, align 8, !tbaa !43
  %12 = getelementptr inbounds nuw i8, ptr %0, i64 32
  %13 = load ptr, ptr %12, align 8, !tbaa !44
  %14 = getelementptr inbounds nuw i8, ptr %0, i64 144
  %15 = load i8, ptr %14, align 8, !tbaa !45, !range !50, !noundef !51
  %16 = trunc nuw i8 %15 to i1
  br i1 %6, label %17, label %19

17:                                               ; preds = %2
  %18 = call noundef i32 @_ZN4toku8locktree18acquire_write_lockEmPK10__toku_dbtS3_PNS_9txnid_setEb(ptr noundef nonnull align 8 dereferenceable(400) %8, i64 noundef %9, ptr noundef %11, ptr noundef %13, ptr noundef nonnull %3, i1 noundef zeroext %16)
  br label %21

19:                                               ; preds = %2
  %20 = call noundef i32 @_ZN4toku8locktree17acquire_read_lockEmPK10__toku_dbtS3_PNS_9txnid_setEb(ptr noundef nonnull align 8 dereferenceable(400) %8, i64 noundef %9, ptr noundef %11, ptr noundef %13, ptr noundef nonnull %3, i1 noundef zeroext %16)
  br label %21

21:                                               ; preds = %19, %17
  %.0 = phi i32 [ %18, %17 ], [ %20, %19 ]
  %22 = icmp eq i32 %.0, 0
  br i1 %22, label %23, label %35

23:                                               ; preds = %21
  call void @_ZN4toku12lock_request25remove_from_lock_requestsEv(ptr noundef nonnull align 8 dereferenceable(224) %0)
  %24 = getelementptr inbounds nuw i8, ptr %0, i64 120
  store i32 0, ptr %24, align 8, !tbaa !73
  %25 = getelementptr inbounds nuw i8, ptr %0, i64 124
  store i32 3, ptr %25, align 4, !tbaa !40
  %26 = getelementptr inbounds nuw i8, ptr %0, i64 184
  %27 = load ptr, ptr %26, align 8, !tbaa !104
  %.not = icmp eq ptr %27, null
  br i1 %.not, label %29, label %28

28:                                               ; preds = %23
  call void %27()
  br label %29

29:                                               ; preds = %28, %23
  %30 = getelementptr inbounds nuw i8, ptr %0, i64 128
  %31 = load ptr, ptr %30, align 8, !tbaa !34
  %32 = load ptr, ptr %31, align 8, !tbaa !32
  %33 = getelementptr inbounds nuw i8, ptr %32, i64 40
  %34 = load ptr, ptr %33, align 8
  call void %34(ptr noundef nonnull align 8 dereferenceable(8) %31)
  br label %38

35:                                               ; preds = %21
  %36 = call noundef i64 @_ZNK4toku9txnid_set3getEj(ptr noundef nonnull align 8 dereferenceable(24) %3, i32 noundef 0)
  %37 = getelementptr inbounds nuw i8, ptr %0, i64 8
  store i64 %36, ptr %37, align 8, !tbaa !65
  call void @_ZN4toku12lock_request22add_conflicts_to_waitsEPNS_9txnid_setEPSt6vectorINS_14lock_wait_infoESaIS4_EE(ptr noundef nonnull align 8 dereferenceable(224) %0, ptr noundef nonnull %3, ptr noundef %1)
  br label %38

38:                                               ; preds = %35, %29
  call void @_ZN4toku9txnid_set7destroyEv(ptr noundef nonnull align 8 dereferenceable(24) %3)
  call void @llvm.lifetime.end.p0(i64 24, ptr nonnull %3) #22
  ret i32 %.0
}